; Function Attrs: mustprogress nounwind uwtable
define hidden noundef zeroext i1 @_ZNK11ZDriverPort7is_busyEv(ptr noundef nonnull align 8 dereferenceable(136) %0) local_unnamed_addr #2 align 2 {
_ZN7ZLockerI14ZConditionLockED2Ev.exit:
  %1 = tail call i32 @pthread_mutex_lock(ptr noundef nonnull %0) #9
  %2 = getelementptr inbounds i8, ptr %0, i64 88
  %3 = load i8, ptr %2, align 8
  %4 = trunc i8 %3 to i1
  %5 = tail call i32 @pthread_mutex_unlock(ptr noundef nonnull %0) #9
  ret i1 %4
}